; Function Attrs: mustprogress nofree norecurse nosync nounwind willreturn memory(none) uwtable
define dso_local noundef ptr @_ZN4llvm22lookupTwoAddrFoldTableEj(i32 noundef %0) local_unnamed_addr #0 {
  br label %_ZSt7advanceIPKN4llvm17X86FoldTableEntryElEvRT_T0_.exit.i.i.i.i

_ZSt7advanceIPKN4llvm17X86FoldTableEntryElEvRT_T0_.exit.i.i.i.i: ; preds = %1, %_ZSt7advanceIPKN4llvm17X86FoldTableEntryElEvRT_T0_.exit.i.i.i.i
  %.017.i.i.i.i = phi ptr [ %.1.i.i.i.i, %_ZSt7advanceIPKN4llvm17X86FoldTableEntryElEvRT_T0_.exit.i.i.i.i ], [ @_ZL10Table2Addr, %1 ]
  %.01116.i.i.i.i = phi i64 [ %.112.i.i.i.i, %_ZSt7advanceIPKN4llvm17X86FoldTableEntryElEvRT_T0_.exit.i.i.i.i ], [ 352, %1 ]
  %2 = lshr i64 %.01116.i.i.i.i, 1
  %3 = getelementptr inbounds %"struct.llvm::X86FoldTableEntry", ptr %.017.i.i.i.i, i64 %2
  %4 = load i32, ptr %3, align 4
  %5 = icmp ult i32 %4, %0
  %6 = getelementptr inbounds i8, ptr %3, i64 12
  %7 = xor i64 %2, -1
  %8 = add nsw i64 %.01116.i.i.i.i, %7
  %.112.i.i.i.i = select i1 %5, i64 %8, i64 %2
  %.1.i.i.i.i = select i1 %5, ptr %6, ptr %.017.i.i.i.i
  %9 = icmp sgt i64 %.112.i.i.i.i, 0
  br i1 %9, label %_ZSt7advanceIPKN4llvm17X86FoldTableEntryElEvRT_T0_.exit.i.i.i.i, label %_ZN4llvm11lower_boundIRNS_8ArrayRefINS_17X86FoldTableEntryEEERjEEDaOT_OT0_.exit.i, !llvm.loop !4

_ZN4llvm11lower_boundIRNS_8ArrayRefINS_17X86FoldTableEntryEEERjEEDaOT_OT0_.exit.i: ; preds = %_ZSt7advanceIPKN4llvm17X86FoldTableEntryElEvRT_T0_.exit.i.i.i.i
  %.not.i = icmp eq ptr %.1.i.i.i.i, getelementptr inbounds (i8, ptr @_ZL10Table2Addr, i64 4224)
  br i1 %.not.i, label %17, label %10

10:                                               ; preds = %_ZN4llvm11lower_boundIRNS_8ArrayRefINS_17X86FoldTableEntryEEERjEEDaOT_OT0_.exit.i
  %11 = load i32, ptr %.1.i.i.i.i, align 4
  %12 = icmp eq i32 %11, %0
  br i1 %12, label %13, label %17

13:                                               ; preds = %10
  %14 = getelementptr inbounds nuw i8, ptr %.1.i.i.i.i, i64 8
  %15 = load i16, ptr %14, align 4
  %16 = and i16 %15, 16
  %.not6.i = icmp eq i16 %16, 0
  br i1 %.not6.i, label %_ZL19lookupFoldTableImplN4llvm8ArrayRefINS_17X86FoldTableEntryEEEj.exit, label %17

17:                                               ; preds = %13, %10, %_ZN4llvm11lower_boundIRNS_8ArrayRefINS_17X86FoldTableEntryEEERjEEDaOT_OT0_.exit.i
  br label %_ZL19lookupFoldTableImplN4llvm8ArrayRefINS_17X86FoldTableEntryEEEj.exit

_ZL19lookupFoldTableImplN4llvm8ArrayRefINS_17X86FoldTableEntryEEEj.exit: ; preds = %13, %17
  %.0.i = phi ptr [ null, %17 ], [ %.1.i.i.i.i, %13 ]
  ret ptr %.0.i
}